; ModuleID = '19/104.c'
source_filename = "19/104.c"
target datalayout = "e-m:e-p270:32:32-p271:32:32-p272:64:64-i64:64-f80:128-n8:16:32:64-S128"
target triple = "x86_64-pc-linux-gnu"

@__const.main.space = private unnamed_addr constant [1 x i8] c" ", align 1
@.str = private unnamed_addr constant [4 x i8] c"%s \00", align 1
@.str.1 = private unnamed_addr constant [3 x i8] c"%s\00", align 1

; Function Attrs: noinline nounwind uwtable
define dso_local void @main() #0 {
  %1 = alloca i32, align 4
  %2 = alloca i32, align 4
  %3 = alloca i32, align 4
  %4 = alloca i32, align 4
  %5 = alloca [100 x i8], align 16
  %6 = alloca [20 x i8], align 16
  %7 = alloca [20 x i8], align 16
  %8 = alloca [99 x [99 x i8]], align 16
  %9 = alloca [1 x i8], align 1
  store i32 0, i32* %3, align 4
  store i32 0, i32* %4, align 4
  %10 = bitcast [1 x i8]* %9 to i8*
  call void @llvm.memcpy.p0i8.p0i8.i64(i8* align 1 %10, i8* align 1 getelementptr inbounds ([1 x i8], [1 x i8]* @__const.main.space, i32 0, i32 0), i64 1, i1 false)
  %11 = getelementptr inbounds [100 x i8], [100 x i8]* %5, i64 0, i64 0
  %12 = call i32 (i8*, ...) bitcast (i32 (...)* @gets to i32 (i8*, ...)*)(i8* %11)
  %13 = getelementptr inbounds [100 x i8], [100 x i8]* %5, i64 0, i64 0
  %14 = getelementptr inbounds [1 x i8], [1 x i8]* %9, i64 0, i64 0
  %15 = call i8* @strcat(i8* %13, i8* %14) #5
  %16 = getelementptr inbounds [20 x i8], [20 x i8]* %6, i64 0, i64 0
  %17 = call i32 (i8*, ...) bitcast (i32 (...)* @gets to i32 (i8*, ...)*)(i8* %16)
  %18 = getelementptr inbounds [20 x i8], [20 x i8]* %7, i64 0, i64 0
  %19 = call i32 (i8*, ...) bitcast (i32 (...)* @gets to i32 (i8*, ...)*)(i8* %18)
  store i32 0, i32* %1, align 4
  br label %20

20:                                               ; preds = %59, %0
  %21 = load i32, i32* %1, align 4
  %22 = icmp sle i32 %21, 99
  br i1 %22, label %23, label %62

23:                                               ; preds = %20
  %24 = load i32, i32* %1, align 4
  %25 = sext i32 %24 to i64
  %26 = getelementptr inbounds [100 x i8], [100 x i8]* %5, i64 0, i64 %25
  %27 = load i8, i8* %26, align 1
  %28 = sext i8 %27 to i32
  %29 = icmp eq i32 %28, 32
  br i1 %29, label %30, label %58

30:                                               ; preds = %23
  %31 = load i32, i32* %3, align 4
  store i32 %31, i32* %2, align 4
  br label %32

32:                                               ; preds = %50, %30
  %33 = load i32, i32* %2, align 4
  %34 = load i32, i32* %1, align 4
  %35 = sub nsw i32 %34, 1
  %36 = icmp sle i32 %33, %35
  br i1 %36, label %37, label %53

37:                                               ; preds = %32
  %38 = load i32, i32* %2, align 4
  %39 = sext i32 %38 to i64
  %40 = getelementptr inbounds [100 x i8], [100 x i8]* %5, i64 0, i64 %39
  %41 = load i8, i8* %40, align 1
  %42 = load i32, i32* %4, align 4
  %43 = sext i32 %42 to i64
  %44 = getelementptr inbounds [99 x [99 x i8]], [99 x [99 x i8]]* %8, i64 0, i64 %43
  %45 = load i32, i32* %2, align 4
  %46 = load i32, i32* %3, align 4
  %47 = sub nsw i32 %45, %46
  %48 = sext i32 %47 to i64
  %49 = getelementptr inbounds [99 x i8], [99 x i8]* %44, i64 0, i64 %48
  store i8 %41, i8* %49, align 1
  br label %50

50:                                               ; preds = %37
  %51 = load i32, i32* %2, align 4
  %52 = add nsw i32 %51, 1
  store i32 %52, i32* %2, align 4
  br label %32

53:                                               ; preds = %32
  %54 = load i32, i32* %1, align 4
  %55 = add nsw i32 %54, 1
  store i32 %55, i32* %3, align 4
  %56 = load i32, i32* %4, align 4
  %57 = add nsw i32 %56, 1
  store i32 %57, i32* %4, align 4
  br label %58

58:                                               ; preds = %53, %23
  br label %59

59:                                               ; preds = %58
  %60 = load i32, i32* %1, align 4
  %61 = add nsw i32 %60, 1
  store i32 %61, i32* %1, align 4
  br label %20

62:                                               ; preds = %20
  store i32 0, i32* %1, align 4
  br label %63

63:                                               ; preds = %89, %62
  %64 = load i32, i32* %1, align 4
  %65 = load i32, i32* %4, align 4
  %66 = sub nsw i32 %65, 1
  %67 = icmp slt i32 %64, %66
  br i1 %67, label %68, label %92

68:                                               ; preds = %63
  %69 = getelementptr inbounds [20 x i8], [20 x i8]* %6, i64 0, i64 0
  %70 = load i32, i32* %1, align 4
  %71 = sext i32 %70 to i64
  %72 = getelementptr inbounds [99 x [99 x i8]], [99 x [99 x i8]]* %8, i64 0, i64 %71
  %73 = getelementptr inbounds [99 x i8], [99 x i8]* %72, i64 0, i64 0
  %74 = call i32 @strcmp(i8* %69, i8* %73) #6
  %75 = icmp eq i32 %74, 0
  br i1 %75, label %76, label %83

76:                                               ; preds = %68
  %77 = load i32, i32* %1, align 4
  %78 = sext i32 %77 to i64
  %79 = getelementptr inbounds [99 x [99 x i8]], [99 x [99 x i8]]* %8, i64 0, i64 %78
  %80 = getelementptr inbounds [99 x i8], [99 x i8]* %79, i64 0, i64 0
  %81 = getelementptr inbounds [20 x i8], [20 x i8]* %7, i64 0, i64 0
  %82 = call i8* @strcpy(i8* %80, i8* %81) #5
  br label %83

83:                                               ; preds = %76, %68
  %84 = load i32, i32* %1, align 4
  %85 = sext i32 %84 to i64
  %86 = getelementptr inbounds [99 x [99 x i8]], [99 x [99 x i8]]* %8, i64 0, i64 %85
  %87 = getelementptr inbounds [99 x i8], [99 x i8]* %86, i64 0, i64 0
  %88 = call i32 (i8*, ...) @printf(i8* getelementptr inbounds ([4 x i8], [4 x i8]* @.str, i64 0, i64 0), i8* %87)
  br label %89

89:                                               ; preds = %83
  %90 = load i32, i32* %1, align 4
  %91 = add nsw i32 %90, 1
  store i32 %91, i32* %1, align 4
  br label %63

92:                                               ; preds = %63
  %93 = load i32, i32* %4, align 4
  %94 = sub nsw i32 %93, 1
  %95 = sext i32 %94 to i64
  %96 = getelementptr inbounds [99 x [99 x i8]], [99 x [99 x i8]]* %8, i64 0, i64 %95
  %97 = getelementptr inbounds [99 x i8], [99 x i8]* %96, i64 0, i64 0
  %98 = call i32 (i8*, ...) @printf(i8* getelementptr inbounds ([3 x i8], [3 x i8]* @.str.1, i64 0, i64 0), i8* %97)
  ret void
}

; Function Attrs: argmemonly nounwind willreturn
declare void @llvm.memcpy.p0i8.p0i8.i64(i8* noalias nocapture writeonly, i8* noalias nocapture readonly, i64, i1 immarg) #1

declare dso_local i32 @gets(...) #2

; Function Attrs: nounwind
declare dso_local i8* @strcat(i8*, i8*) #3

; Function Attrs: nounwind readonly
declare dso_local i32 @strcmp(i8*, i8*) #4

; Function Attrs: nounwind
declare dso_local i8* @strcpy(i8*, i8*) #3

declare dso_local i32 @printf(i8*, ...) #2


!llvm.module.flags = !{!0}
!llvm.ident = !{!1}

!0 = !{i32 1, !"wchar_size", i32 4}
!1 = !{!"clang version 10.0.0-4ubuntu1 "}
